target datalayout = "e-m:e-p270:32:32-p271:32:32-p272:64:64-i64:64-i128:128-f80:128-n8:16:32:64-S128"
target triple = "x86_64-pc-linux-gnu"

%struct._lv_draw_sw_unit_t = type { %struct._lv_draw_unit_t, ptr, i32 }
%struct._lv_draw_unit_t = type { ptr, ptr, ptr, ptr, ptr, ptr, ptr, ptr }

@.str = private unnamed_addr constant [3 x i8] c"SW\00", align 1

; Function Attrs: nounwind uwtable
define void @lv_draw_sw_init() #0 {
  %1 = alloca i32, align 4
  %2 = alloca ptr, align 8
  call void @lv_draw_sw_mask_init()
  call void @llvm.lifetime.start.p0(i64 4, ptr %1) #4
  store i32 0, ptr %1, align 4, !tbaa !3
  br label %3

3:                                                ; preds = %23, %0
  %4 = load i32, ptr %1, align 4, !tbaa !3
  %5 = icmp ult i32 %4, 1
  br i1 %5, label %6, label %26

6:                                                ; preds = %3
  call void @llvm.lifetime.start.p0(i64 8, ptr %2) #4
  %7 = call ptr @lv_draw_create_unit(i64 noundef 80)
  store ptr %7, ptr %2, align 8, !tbaa !7
  %8 = load ptr, ptr %2, align 8, !tbaa !7
  %9 = getelementptr inbounds nuw %struct._lv_draw_sw_unit_t, ptr %8, i32 0, i32 0
  %10 = getelementptr inbounds nuw %struct._lv_draw_unit_t, ptr %9, i32 0, i32 4
  store ptr @dispatch, ptr %10, align 8, !tbaa !9
  %11 = load ptr, ptr %2, align 8, !tbaa !7
  %12 = getelementptr inbounds nuw %struct._lv_draw_sw_unit_t, ptr %11, i32 0, i32 0
  %13 = getelementptr inbounds nuw %struct._lv_draw_unit_t, ptr %12, i32 0, i32 5
  store ptr @evaluate, ptr %13, align 8, !tbaa !12
  %14 = load i32, ptr %1, align 4, !tbaa !3
  %15 = load ptr, ptr %2, align 8, !tbaa !7
  %16 = getelementptr inbounds nuw %struct._lv_draw_sw_unit_t, ptr %15, i32 0, i32 2
  store i32 %14, ptr %16, align 8, !tbaa !13
  %17 = load ptr, ptr %2, align 8, !tbaa !7
  %18 = getelementptr inbounds nuw %struct._lv_draw_sw_unit_t, ptr %17, i32 0, i32 0
  %19 = getelementptr inbounds nuw %struct._lv_draw_unit_t, ptr %18, i32 0, i32 7
  store ptr null, ptr %19, align 8, !tbaa !14
  %20 = load ptr, ptr %2, align 8, !tbaa !7
  %21 = getelementptr inbounds nuw %struct._lv_draw_sw_unit_t, ptr %20, i32 0, i32 0
  %22 = getelementptr inbounds nuw %struct._lv_draw_unit_t, ptr %21, i32 0, i32 3
  store ptr @.str, ptr %22, align 8, !tbaa !15
  call void @llvm.lifetime.end.p0(i64 8, ptr %2) #4
  br label %23

23:                                               ; preds = %6
  %24 = load i32, ptr %1, align 4, !tbaa !3
  %25 = add i32 %24, 1
  store i32 %25, ptr %1, align 4, !tbaa !3
  br label %3, !llvm.loop !16

26:                                               ; preds = %3
  call void @llvm.lifetime.end.p0(i64 4, ptr %1) #4
  ret void
}