; Function Attrs: nounwind uwtable
define void @lv_draw_sw_init() local_unnamed_addr #0 {
.critedge:
  tail call void @lv_draw_sw_mask_init() #5
  %0 = tail call ptr @lv_draw_create_unit(i64 noundef 80) #5
  %1 = getelementptr inbounds nuw i8, ptr %0, i64 32
  store ptr @dispatch, ptr %1, align 8, !tbaa !3
  %2 = getelementptr inbounds nuw i8, ptr %0, i64 40
  store ptr @evaluate, ptr %2, align 8, !tbaa !10
  %3 = getelementptr inbounds nuw i8, ptr %0, i64 72
  store i32 0, ptr %3, align 8, !tbaa !11
  %4 = getelementptr inbounds nuw i8, ptr %0, i64 56
  store ptr null, ptr %4, align 8, !tbaa !12
  %5 = getelementptr inbounds nuw i8, ptr %0, i64 24
  store ptr @.str, ptr %5, align 8, !tbaa !13
  ret void
}